; Function Attrs: nounwind sspstrong uwtable
define internal i64 @ancillary_ipv6_pktinfo(i64 noundef %0) #0 {
  %2 = alloca %struct.in6_pktinfo, align 4
  %3 = alloca %struct.sockaddr_in6, align 4
  call void @llvm.lifetime.start.p0(i64 20, ptr nonnull %2) #10
  call void @llvm.lifetime.start.p0(i64 28, ptr nonnull %3) #10
  call fastcc void @extract_ipv6_pktinfo(i64 noundef %0, ptr noundef %2, ptr noundef %3)
  %4 = call i64 @rsock_addrinfo_new(ptr noundef nonnull %3, i32 noundef 28, i32 noundef 10, i32 noundef 0, i32 noundef 0, i64 noundef 4, i64 noundef 4) #10
  %5 = getelementptr inbounds nuw i8, ptr %2, i64 16
  %6 = load i32, ptr %5, align 4, !tbaa !138
  %7 = zext i32 %6 to i64
  %8 = shl nuw nsw i64 %7, 1
  %9 = or disjoint i64 %8, 1
  %10 = call i64 (i64, ...) @rb_ary_new_from_args(i64 noundef 2, i64 noundef %4, i64 noundef %9) #10
  call void @llvm.lifetime.end.p0(i64 28, ptr nonnull %3) #10
  call void @llvm.lifetime.end.p0(i64 20, ptr nonnull %2) #10
  ret i64 %10
}